; Function Attrs: nounwind uwtable
define void @png_set_tIME(ptr noalias noundef %0, ptr noalias noundef %1, ptr noundef readonly %2) local_unnamed_addr #2 {
  %4 = icmp eq ptr %0, null
  %5 = icmp eq ptr %1, null
  %or.cond = or i1 %4, %5
  %6 = icmp eq ptr %2, null
  %or.cond3 = or i1 %or.cond, %6
  br i1 %or.cond3, label %38, label %7

7:                                                ; preds = %3
  %8 = getelementptr inbounds i8, ptr %0, i64 300
  %9 = load i32, ptr %8, align 4
  %10 = and i32 %9, 512
  %.not = icmp eq i32 %10, 0
  br i1 %.not, label %11, label %38

11:                                               ; preds = %7
  %12 = getelementptr inbounds i8, ptr %2, i64 2
  %13 = load i8, ptr %12, align 2
  %14 = add i8 %13, -13
  %or.cond22 = icmp ult i8 %14, -12
  br i1 %or.cond22, label %31, label %15

15:                                               ; preds = %11
  %16 = getelementptr inbounds i8, ptr %2, i64 3
  %17 = load i8, ptr %16, align 1
  %18 = add i8 %17, -32
  %or.cond23 = icmp ult i8 %18, -31
  br i1 %or.cond23, label %31, label %19

19:                                               ; preds = %15
  %20 = getelementptr inbounds i8, ptr %2, i64 4
  %21 = load i8, ptr %20, align 2
  %22 = icmp ugt i8 %21, 23
  br i1 %22, label %31, label %23

23:                                               ; preds = %19
  %24 = getelementptr inbounds i8, ptr %2, i64 5
  %25 = load i8, ptr %24, align 1
  %26 = icmp ugt i8 %25, 59
  br i1 %26, label %31, label %27

27:                                               ; preds = %23
  %28 = getelementptr inbounds i8, ptr %2, i64 6
  %29 = load i8, ptr %28, align 2
  %30 = icmp ugt i8 %29, 60
  br i1 %30, label %31, label %32

31:                                               ; preds = %27, %23, %19, %15, %11
  tail call void @png_warning(ptr noundef nonnull %0, ptr noundef nonnull @.str.38) #12
  br label %38

32:                                               ; preds = %27
  %33 = getelementptr inbounds i8, ptr %1, i64 168
  %34 = load i64, ptr %2, align 2
  store i64 %34, ptr %33, align 8
  %35 = getelementptr inbounds i8, ptr %1, i64 8
  %36 = load i32, ptr %35, align 8
  %37 = or i32 %36, 512
  store i32 %37, ptr %35, align 8
  br label %38

38:                                               ; preds = %3, %7, %32, %31
  ret void
}